; ModuleID = '46/2284.c'
source_filename = "46/2284.c"
target datalayout = "e-m:e-p270:32:32-p271:32:32-p272:64:64-i64:64-f80:128-n8:16:32:64-S128"
target triple = "x86_64-pc-linux-gnu"

@.str = private unnamed_addr constant [5 x i8] c"%d%d\00", align 1
@.str.1 = private unnamed_addr constant [3 x i8] c"%d\00", align 1
@.str.2 = private unnamed_addr constant [4 x i8] c"%d\0A\00", align 1

; Function Attrs: noinline nounwind uwtable
define dso_local void @main() #0 {
  %1 = alloca i32, align 4
  %2 = alloca i32, align 4
  %3 = alloca i32, align 4
  %4 = alloca i32, align 4
  %5 = alloca i32, align 4
  %6 = alloca i32, align 4
  %7 = alloca i32, align 4
  %8 = alloca i32, align 4
  %9 = alloca [100 x [100 x i32]], align 16
  %10 = call i32 (i8*, ...) @__isoc99_scanf(i8* getelementptr inbounds ([5 x i8], [5 x i8]* @.str, i64 0, i64 0), i32* %7, i32* %8)
  store i32 0, i32* %1, align 4
  br label %11

11:                                               ; preds = %32, %0
  %12 = load i32, i32* %1, align 4
  %13 = load i32, i32* %7, align 4
  %14 = icmp slt i32 %12, %13
  br i1 %14, label %15, label %35

15:                                               ; preds = %11
  store i32 0, i32* %2, align 4
  br label %16

16:                                               ; preds = %28, %15
  %17 = load i32, i32* %2, align 4
  %18 = load i32, i32* %8, align 4
  %19 = icmp slt i32 %17, %18
  br i1 %19, label %20, label %31

20:                                               ; preds = %16
  %21 = load i32, i32* %1, align 4
  %22 = sext i32 %21 to i64
  %23 = getelementptr inbounds [100 x [100 x i32]], [100 x [100 x i32]]* %9, i64 0, i64 %22
  %24 = load i32, i32* %2, align 4
  %25 = sext i32 %24 to i64
  %26 = getelementptr inbounds [100 x i32], [100 x i32]* %23, i64 0, i64 %25
  %27 = call i32 (i8*, ...) @__isoc99_scanf(i8* getelementptr inbounds ([3 x i8], [3 x i8]* @.str.1, i64 0, i64 0), i32* %26)
  br label %28

28:                                               ; preds = %20
  %29 = load i32, i32* %2, align 4
  %30 = add nsw i32 %29, 1
  store i32 %30, i32* %2, align 4
  br label %16

31:                                               ; preds = %16
  br label %32

32:                                               ; preds = %31
  %33 = load i32, i32* %1, align 4
  %34 = add nsw i32 %33, 1
  store i32 %34, i32* %1, align 4
  br label %11

35:                                               ; preds = %11
  store i32 0, i32* %3, align 4
  %36 = load i32, i32* %7, align 4
  %37 = sub nsw i32 %36, 1
  store i32 %37, i32* %4, align 4
  store i32 0, i32* %5, align 4
  %38 = load i32, i32* %8, align 4
  %39 = sub nsw i32 %38, 1
  store i32 %39, i32* %6, align 4
  br label %40

40:                                               ; preds = %122, %35
  %41 = load i32, i32* %3, align 4
  %42 = load i32, i32* %4, align 4
  %43 = icmp slt i32 %41, %42
  br i1 %43, label %44, label %48

44:                                               ; preds = %40
  %45 = load i32, i32* %5, align 4
  %46 = load i32, i32* %6, align 4
  %47 = icmp slt i32 %45, %46
  br label %48

48:                                               ; preds = %44, %40
  %49 = phi i1 [ false, %40 ], [ %47, %44 ]
  br i1 %49, label %50, label %131

50:                                               ; preds = %48
  %51 = load i32, i32* %5, align 4
  store i32 %51, i32* %2, align 4
  br label %52

52:                                               ; preds = %65, %50
  %53 = load i32, i32* %2, align 4
  %54 = load i32, i32* %6, align 4
  %55 = icmp slt i32 %53, %54
  br i1 %55, label %56, label %68

56:                                               ; preds = %52
  %57 = load i32, i32* %3, align 4
  %58 = sext i32 %57 to i64
  %59 = getelementptr inbounds [100 x [100 x i32]], [100 x [100 x i32]]* %9, i64 0, i64 %58
  %60 = load i32, i32* %2, align 4
  %61 = sext i32 %60 to i64
  %62 = getelementptr inbounds [100 x i32], [100 x i32]* %59, i64 0, i64 %61
  %63 = load i32, i32* %62, align 4
  %64 = call i32 (i8*, ...) @printf(i8* getelementptr inbounds ([4 x i8], [4 x i8]* @.str.2, i64 0, i64 0), i32 %63)
  br label %65

65:                                               ; preds = %56
  %66 = load i32, i32* %2, align 4
  %67 = add nsw i32 %66, 1
  store i32 %67, i32* %2, align 4
  br label %52

68:                                               ; preds = %52
  %69 = load i32, i32* %3, align 4
  store i32 %69, i32* %1, align 4
  br label %70

70:                                               ; preds = %83, %68
  %71 = load i32, i32* %1, align 4
  %72 = load i32, i32* %4, align 4
  %73 = icmp slt i32 %71, %72
  br i1 %73, label %74, label %86

74:                                               ; preds = %70
  %75 = load i32, i32* %1, align 4
  %76 = sext i32 %75 to i64
  %77 = getelementptr inbounds [100 x [100 x i32]], [100 x [100 x i32]]* %9, i64 0, i64 %76
  %78 = load i32, i32* %6, align 4
  %79 = sext i32 %78 to i64
  %80 = getelementptr inbounds [100 x i32], [100 x i32]* %77, i64 0, i64 %79
  %81 = load i32, i32* %80, align 4
  %82 = call i32 (i8*, ...) @printf(i8* getelementptr inbounds ([4 x i8], [4 x i8]* @.str.2, i64 0, i64 0), i32 %81)
  br label %83

83:                                               ; preds = %74
  %84 = load i32, i32* %1, align 4
  %85 = add nsw i32 %84, 1
  store i32 %85, i32* %1, align 4
  br label %70

86:                                               ; preds = %70
  %87 = load i32, i32* %6, align 4
  store i32 %87, i32* %2, align 4
  br label %88

88:                                               ; preds = %101, %86
  %89 = load i32, i32* %2, align 4
  %90 = load i32, i32* %5, align 4
  %91 = icmp sgt i32 %89, %90
  br i1 %91, label %92, label %104

92:                                               ; preds = %88
  %93 = load i32, i32* %4, align 4
  %94 = sext i32 %93 to i64
  %95 = getelementptr inbounds [100 x [100 x i32]], [100 x [100 x i32]]* %9, i64 0, i64 %94
  %96 = load i32, i32* %2, align 4
  %97 = sext i32 %96 to i64
  %98 = getelementptr inbounds [100 x i32], [100 x i32]* %95, i64 0, i64 %97
  %99 = load i32, i32* %98, align 4
  %100 = call i32 (i8*, ...) @printf(i8* getelementptr inbounds ([4 x i8], [4 x i8]* @.str.2, i64 0, i64 0), i32 %99)
  br label %101

101:                                              ; preds = %92
  %102 = load i32, i32* %2, align 4
  %103 = add nsw i32 %102, -1
  store i32 %103, i32* %2, align 4
  br label %88

104:                                              ; preds = %88
  %105 = load i32, i32* %4, align 4
  store i32 %105, i32* %1, align 4
  br label %106

106:                                              ; preds = %119, %104
  %107 = load i32, i32* %1, align 4
  %108 = load i32, i32* %3, align 4
  %109 = icmp sgt i32 %107, %108
  br i1 %109, label %110, label %122

110:                                              ; preds = %106
  %111 = load i32, i32* %1, align 4
  %112 = sext i32 %111 to i64
  %113 = getelementptr inbounds [100 x [100 x i32]], [100 x [100 x i32]]* %9, i64 0, i64 %112
  %114 = load i32, i32* %5, align 4
  %115 = sext i32 %114 to i64
  %116 = getelementptr inbounds [100 x i32], [100 x i32]* %113, i64 0, i64 %115
  %117 = load i32, i32* %116, align 4
  %118 = call i32 (i8*, ...) @printf(i8* getelementptr inbounds ([4 x i8], [4 x i8]* @.str.2, i64 0, i64 0), i32 %117)
  br label %119

119:                                              ; preds = %110
  %120 = load i32, i32* %1, align 4
  %121 = add nsw i32 %120, -1
  store i32 %121, i32* %1, align 4
  br label %106

122:                                              ; preds = %106
  %123 = load i32, i32* %3, align 4
  %124 = add nsw i32 %123, 1
  store i32 %124, i32* %3, align 4
  %125 = load i32, i32* %4, align 4
  %126 = add nsw i32 %125, -1
  store i32 %126, i32* %4, align 4
  %127 = load i32, i32* %5, align 4
  %128 = add nsw i32 %127, 1
  store i32 %128, i32* %5, align 4
  %129 = load i32, i32* %6, align 4
  %130 = add nsw i32 %129, -1
  store i32 %130, i32* %6, align 4
  br label %40

131:                                              ; preds = %48
  %132 = load i32, i32* %3, align 4
  %133 = load i32, i32* %4, align 4
  %134 = icmp eq i32 %132, %133
  br i1 %134, label %135, label %148

135:                                              ; preds = %131
  %136 = load i32, i32* %5, align 4
  %137 = load i32, i32* %6, align 4
  %138 = icmp eq i32 %136, %137
  br i1 %138, label %139, label %148

139:                                              ; preds = %135
  %140 = load i32, i32* %3, align 4
  %141 = sext i32 %140 to i64
  %142 = getelementptr inbounds [100 x [100 x i32]], [100 x [100 x i32]]* %9, i64 0, i64 %141
  %143 = load i32, i32* %5, align 4
  %144 = sext i32 %143 to i64
  %145 = getelementptr inbounds [100 x i32], [100 x i32]* %142, i64 0, i64 %144
  %146 = load i32, i32* %145, align 4
  %147 = call i32 (i8*, ...) @printf(i8* getelementptr inbounds ([3 x i8], [3 x i8]* @.str.1, i64 0, i64 0), i32 %146)
  br label %195

148:                                              ; preds = %135, %131
  %149 = load i32, i32* %3, align 4
  %150 = load i32, i32* %4, align 4
  %151 = icmp eq i32 %149, %150
  br i1 %151, label %152, label %171

152:                                              ; preds = %148
  %153 = load i32, i32* %5, align 4
  store i32 %153, i32* %2, align 4
  br label %154

154:                                              ; preds = %167, %152
  %155 = load i32, i32* %2, align 4
  %156 = load i32, i32* %6, align 4
  %157 = icmp sle i32 %155, %156
  br i1 %157, label %158, label %170

158:                                              ; preds = %154
  %159 = load i32, i32* %3, align 4
  %160 = sext i32 %159 to i64
  %161 = getelementptr inbounds [100 x [100 x i32]], [100 x [100 x i32]]* %9, i64 0, i64 %160
  %162 = load i32, i32* %2, align 4
  %163 = sext i32 %162 to i64
  %164 = getelementptr inbounds [100 x i32], [100 x i32]* %161, i64 0, i64 %163
  %165 = load i32, i32* %164, align 4
  %166 = call i32 (i8*, ...) @printf(i8* getelementptr inbounds ([4 x i8], [4 x i8]* @.str.2, i64 0, i64 0), i32 %165)
  br label %167

167:                                              ; preds = %158
  %168 = load i32, i32* %2, align 4
  %169 = add nsw i32 %168, 1
  store i32 %169, i32* %2, align 4
  br label %154

170:                                              ; preds = %154
  br label %171

171:                                              ; preds = %170, %148
  %172 = load i32, i32* %5, align 4
  %173 = load i32, i32* %6, align 4
  %174 = icmp eq i32 %172, %173
  br i1 %174, label %175, label %194

175:                                              ; preds = %171
  %176 = load i32, i32* %3, align 4
  store i32 %176, i32* %1, align 4
  br label %177

177:                                              ; preds = %190, %175
  %178 = load i32, i32* %1, align 4
  %179 = load i32, i32* %4, align 4
  %180 = icmp sle i32 %178, %179
  br i1 %180, label %181, label %193

181:                                              ; preds = %177
  %182 = load i32, i32* %1, align 4
  %183 = sext i32 %182 to i64
  %184 = getelementptr inbounds [100 x [100 x i32]], [100 x [100 x i32]]* %9, i64 0, i64 %183
  %185 = load i32, i32* %6, align 4
  %186 = sext i32 %185 to i64
  %187 = getelementptr inbounds [100 x i32], [100 x i32]* %184, i64 0, i64 %186
  %188 = load i32, i32* %187, align 4
  %189 = call i32 (i8*, ...) @printf(i8* getelementptr inbounds ([4 x i8], [4 x i8]* @.str.2, i64 0, i64 0), i32 %188)
  br label %190

190:                                              ; preds = %181
  %191 = load i32, i32* %1, align 4
  %192 = add nsw i32 %191, 1
  store i32 %192, i32* %1, align 4
  br label %177

193:                                              ; preds = %177
  br label %194

194:                                              ; preds = %193, %171
  br label %195

195:                                              ; preds = %194, %139
  ret void
}

declare dso_local i32 @__isoc99_scanf(i8*, ...) #1

declare dso_local i32 @printf(i8*, ...) #1


!llvm.module.flags = !{!0}
!llvm.ident = !{!1}

!0 = !{i32 1, !"wchar_size", i32 4}
!1 = !{!"clang version 10.0.0-4ubuntu1 "}
